Certificate:
    Data:
        Version: 3 (0x2)
        Serial Number: 1 (0x1)
    Signature Algorithm: sha256WithRSAEncryption
        Issuer: CN=Raymond Leon
        Validity
            Not Before: Nov 14 22:36:19 2022 GMT
            Not After : Dec 17 22:36:19 2023 GMT
        Subject: CN=Intermediate Certificate Authority
        Subject Public Key Info:
            Public Key Algorithm: rsaEncryption
                RSA Public-Key: (2048 bit)
                Modulus:
                    00:9c:f1:29:29:d0:cd:4c:b2:68:e6:19:8d:a9:0d:
                    ba:17:53:6c:5f:a9:d3:12:ee:e1:d6:f1:f7:9a:a9:
                    fe:d4:52:e3:d8:5c:b6:07:ec:29:b4:80:b1:61:fe:
                    95:be:4b:42:e1:0c:5c:41:48:51:00:4b:43:a3:44:
                    5a:0e:79:20:eb:85:e7:32:9f:56:41:88:5b:25:be:
                    6d:32:b9:24:8b:62:76:fa:af:a0:2d:16:a7:fe:1e:
                    e4:10:f6:e1:2f:74:bb:00:df:29:32:3c:d9:4c:2c:
                    e8:60:80:78:af:96:30:2b:89:c0:7f:2a:e0:b2:49:
                    6c:5d:76:4a:8a:a7:4b:45:c5:34:12:78:96:f5:2b:
                    c4:9b:4b:9e:c5:20:53:57:85:8e:18:01:c7:cd:cf:
                    2c:b7:4b:8a:6e:f9:ea:7c:8e:9f:c0:88:40:4f:9c:
                    af:ac:85:3d:da:68:22:d4:55:8b:a5:c2:af:b5:76:
                    2a:15:ad:a9:9b:b2:17:69:7f:5a:37:f5:72:7e:81:
                    59:66:aa:e1:35:6a:cf:85:5f:6d:82:c5:b9:22:be:
                    e1:7b:7b:9b:d7:98:75:77:84:5b:14:a1:78:88:ab:
                    f7:3e:5d:6a:92:a3:f0:3f:91:3a:1f:9d:62:40:18:
                    f5:7e:39:0a:a7:f5:b3:e1:78:9d:d4:0d:32:13:52:
                    ec:41
                Exponent: 65537 (0x10001)
        X509v3 extensions:
            X509v3 Basic Constraints: 
                CA:TRUE
    Signature Algorithm: sha256WithRSAEncryption
         06:9b:3d:74:45:ed:43:2d:a3:d8:30:9b:f8:a1:57:3c:2d:8f:
         ff:3c:f3:7e:27:23:bd:8c:4d:35:67:fc:dd:12:4e:9f:e8:c6:
         9d:1c:54:0f:6c:44:d2:8a:0d:6f:7d:71:e3:68:1d:4a:b9:2e:
         07:7f:9f:0e:48:15:60:aa:4c:0a:d7:e9:f1:fb:47:01:87:d9:
         f2:95:2f:54:37:07:a6:e9:5d:a3:ab:d5:9e:f0:2d:60:88:61:
         a2:ea:38:6b:7b:5a:9f:5a:fe:c7:49:03:ac:ba:9d:a9:f2:af:
         f9:db:02:9b:58:dd:05:b3:fa:e4:91:86:9b:10:36:7f:b9:c2:
         e2:f8:35:58:e8:df:9a:20:e3:cb:47:18:8b:5b:c0:5a:a0:3d:
         aa:26:a4:74:41:56:eb:59:24:4a:8d:f2:e2:ae:bc:fe:5f:f9:
         24:a7:6d:cb:b1:5e:bf:c9:a3:1b:96:e4:d2:cb:19:cb:ef:bc:
         5e:af:3d:a9:99:d3:26:fc:eb:37:dc:55:34:b6:f9:32:52:6f:
         9f:a4:c1:7d:71:2c:e5:69:d8:d4:43:82:09:57:af:d6:6b:7e:
         7e:56:86:63:38:d6:99:94:97:91:ee:21:d9:37:71:7f:b6:ae:
         06:42:2a:c1:36:b8:06:4b:d5:dc:f2:76:e7:45:08:6c:2f:31:
         ea:41:ac:ee
-----BEGIN CERTIFICATE-----
MIICzzCCAbegAwIBAgIBATANBgkqhkiG9w0BAQsFADAXMRUwEwYDVQQDDAxSYXlt
b25kIExlb24wHhcNMjIxMTE0MjIzNjE5WhcNMjMxMjE3MjIzNjE5WjAtMSswKQYD
VQQDDCJJbnRlcm1lZGlhdGUgQ2VydGlmaWNhdGUgQXV0aG9yaXR5MIIBIjANBgkq
hkiG9w0BAQEFAAOCAQ8AMIIBCgKCAQEAnPEpKdDNTLJo5hmNqQ26F1NsX6nTEu7h
1vH3mqn+1FLj2Fy2B+wptICxYf6VvktC4QxcQUhRAEtDo0RaDnkg64XnMp9WQYhb
Jb5tMrkki2J2+q+gLRan/h7kEPbhL3S7AN8pMjzZTCzoYIB4r5YwK4nAfyrgskls
XXZKiqdLRcU0EniW9SvEm0uexSBTV4WOGAHHzc8st0uKbvnqfI6fwIhAT5yvrIU9
2mgi1FWLpcKvtXYqFa2pm7IXaX9aN/VyfoFZZqrhNWrPhV9tgsW5Ir7he3ub15h1
d4RbFKF4iKv3Pl1qkqPwP5E6H51iQBj1fjkKp/Wz4Xid1A0yE1LsQQIDAQABoxAw
DjAMBgNVHRMEBTADAQH/MA0GCSqGSIb3DQEBCwUAA4IBAQAGmz10Re1DLaPYMJv4
oVc8LY//PPN+JyO9jE01Z/zdEk6f6MadHFQPbETSig1vfXHjaB1KuS4Hf58OSBVg
qkwK1+nx+0cBh9nylS9UNwem6V2jq9We8C1giGGi6jhre1qfWv7HSQOsup2p8q/5
2wKbWN0Fs/rkkYabEDZ/ucLi+DVY6N+aIOPLRxiLW8BaoD2qJqR0QVbrWSRKjfLi
rrz+X/kkp23LsV6/yaMbluTSyxnL77xerz2pmdMm/Os33FU0tvkyUm+fpMF9cSzl
adjUQ4IJV6/Wa35+VoZjONaZlJeR7iHZN3F/tq4GQirBNrgGS9Xc8nbnRQhsLzHq
Qazu
-----END CERTIFICATE-----
