Certificate:
    Data:
        Version: 3 (0x2)
        Serial Number: 3 (0x3)
    Signature Algorithm: sha256WithRSAEncryption
        Issuer: CN=Raymond Leon
        Validity
            Not Before: Nov 15 22:37:59 2022 GMT
            Not After : Dec 18 22:37:59 2023 GMT
        Subject: CN=Intermediate Certificate Authority
        Subject Public Key Info:
            Public Key Algorithm: rsaEncryption
                RSA Public-Key: (2048 bit)
                Modulus:
                    00:9c:f1:29:29:d0:cd:4c:b2:68:e6:19:8d:a9:0d:
                    ba:17:53:6c:5f:a9:d3:12:ee:e1:d6:f1:f7:9a:a9:
                    fe:d4:52:e3:d8:5c:b6:07:ec:29:b4:80:b1:61:fe:
                    95:be:4b:42:e1:0c:5c:41:48:51:00:4b:43:a3:44:
                    5a:0e:79:20:eb:85:e7:32:9f:56:41:88:5b:25:be:
                    6d:32:b9:24:8b:62:76:fa:af:a0:2d:16:a7:fe:1e:
                    e4:10:f6:e1:2f:74:bb:00:df:29:32:3c:d9:4c:2c:
                    e8:60:80:78:af:96:30:2b:89:c0:7f:2a:e0:b2:49:
                    6c:5d:76:4a:8a:a7:4b:45:c5:34:12:78:96:f5:2b:
                    c4:9b:4b:9e:c5:20:53:57:85:8e:18:01:c7:cd:cf:
                    2c:b7:4b:8a:6e:f9:ea:7c:8e:9f:c0:88:40:4f:9c:
                    af:ac:85:3d:da:68:22:d4:55:8b:a5:c2:af:b5:76:
                    2a:15:ad:a9:9b:b2:17:69:7f:5a:37:f5:72:7e:81:
                    59:66:aa:e1:35:6a:cf:85:5f:6d:82:c5:b9:22:be:
                    e1:7b:7b:9b:d7:98:75:77:84:5b:14:a1:78:88:ab:
                    f7:3e:5d:6a:92:a3:f0:3f:91:3a:1f:9d:62:40:18:
                    f5:7e:39:0a:a7:f5:b3:e1:78:9d:d4:0d:32:13:52:
                    ec:41
                Exponent: 65537 (0x10001)
        X509v3 extensions:
            X509v3 Basic Constraints: 
                CA:TRUE
    Signature Algorithm: sha256WithRSAEncryption
         5e:5b:41:37:a8:f3:27:b3:1a:54:b1:f4:d6:f4:2f:4c:35:9b:
         88:ae:16:61:00:16:5c:5d:2e:ff:a7:b1:39:fd:c3:e4:42:e3:
         75:a5:80:06:45:aa:8c:76:5a:bb:ca:27:f3:5f:e6:64:68:13:
         a9:5b:6e:4f:e7:35:60:9d:28:23:54:f1:b0:f7:e3:78:be:49:
         6d:b5:fe:b5:c6:45:01:4c:99:ad:70:a6:93:35:c5:9d:e3:84:
         7a:f3:f2:62:7f:9a:69:93:ec:dd:11:2a:8b:bf:a0:1f:9d:36:
         52:b4:fe:2f:0b:ef:7b:90:4f:3b:65:6d:ab:e1:c3:df:21:2c:
         fb:00:9e:e5:b7:58:bc:ba:79:6e:47:49:f7:92:93:31:02:44:
         da:cf:0d:90:75:9b:05:43:8d:a7:72:fc:ec:81:87:75:1a:9e:
         70:e4:a1:7a:e8:99:d1:cc:0a:49:c2:73:76:61:8d:ab:eb:f0:
         4c:90:9d:31:89:7b:72:a8:7d:0c:c5:94:70:d4:31:fa:03:75:
         05:67:32:71:d6:9a:df:8d:c4:e4:fd:a8:f4:66:ff:1c:78:6c:
         a5:01:5b:01:81:d1:ab:e5:47:32:ef:9a:0e:a9:80:79:5b:bc:
         48:15:51:6c:c0:c1:cb:e5:6a:32:5a:6b:4f:1f:c7:e6:a8:b3:
         d6:03:19:3a
-----BEGIN CERTIFICATE-----
MIICzzCCAbegAwIBAgIBAzANBgkqhkiG9w0BAQsFADAXMRUwEwYDVQQDDAxSYXlt
b25kIExlb24wHhcNMjIxMTE1MjIzNzU5WhcNMjMxMjE4MjIzNzU5WjAtMSswKQYD
VQQDDCJJbnRlcm1lZGlhdGUgQ2VydGlmaWNhdGUgQXV0aG9yaXR5MIIBIjANBgkq
hkiG9w0BAQEFAAOCAQ8AMIIBCgKCAQEAnPEpKdDNTLJo5hmNqQ26F1NsX6nTEu7h
1vH3mqn+1FLj2Fy2B+wptICxYf6VvktC4QxcQUhRAEtDo0RaDnkg64XnMp9WQYhb
Jb5tMrkki2J2+q+gLRan/h7kEPbhL3S7AN8pMjzZTCzoYIB4r5YwK4nAfyrgskls
XXZKiqdLRcU0EniW9SvEm0uexSBTV4WOGAHHzc8st0uKbvnqfI6fwIhAT5yvrIU9
2mgi1FWLpcKvtXYqFa2pm7IXaX9aN/VyfoFZZqrhNWrPhV9tgsW5Ir7he3ub15h1
d4RbFKF4iKv3Pl1qkqPwP5E6H51iQBj1fjkKp/Wz4Xid1A0yE1LsQQIDAQABoxAw
DjAMBgNVHRMEBTADAQH/MA0GCSqGSIb3DQEBCwUAA4IBAQBeW0E3qPMnsxpUsfTW
9C9MNZuIrhZhABZcXS7/p7E5/cPkQuN1pYAGRaqMdlq7yifzX+ZkaBOpW25P5zVg
nSgjVPGw9+N4vklttf61xkUBTJmtcKaTNcWd44R68/Jif5ppk+zdESqLv6AfnTZS
tP4vC+97kE87ZW2r4cPfISz7AJ7lt1i8unluR0n3kpMxAkTazw2QdZsFQ42ncvzs
gYd1Gp5w5KF66JnRzApJwnN2YY2r6/BMkJ0xiXtyqH0MxZRw1DH6A3UFZzJx1prf
jcTk/aj0Zv8ceGylAVsBgdGr5Ucy75oOqYB5W7xIFVFswMHL5WoyWmtPH8fmqLPW
Axk6
-----END CERTIFICATE-----
