Certificate:
    Data:
        Version: 3 (0x2)
        Serial Number: 6 (0x6)
    Signature Algorithm: sha256WithRSAEncryption
        Issuer: CN=Raymond Leon
        Validity
            Not Before: Nov 16 01:23:10 2022 GMT
            Not After : Dec 19 01:23:10 2023 GMT
        Subject: CN=Intermediate Certificate Authority
        Subject Public Key Info:
            Public Key Algorithm: rsaEncryption
                RSA Public-Key: (2048 bit)
                Modulus:
                    00:9c:f1:29:29:d0:cd:4c:b2:68:e6:19:8d:a9:0d:
                    ba:17:53:6c:5f:a9:d3:12:ee:e1:d6:f1:f7:9a:a9:
                    fe:d4:52:e3:d8:5c:b6:07:ec:29:b4:80:b1:61:fe:
                    95:be:4b:42:e1:0c:5c:41:48:51:00:4b:43:a3:44:
                    5a:0e:79:20:eb:85:e7:32:9f:56:41:88:5b:25:be:
                    6d:32:b9:24:8b:62:76:fa:af:a0:2d:16:a7:fe:1e:
                    e4:10:f6:e1:2f:74:bb:00:df:29:32:3c:d9:4c:2c:
                    e8:60:80:78:af:96:30:2b:89:c0:7f:2a:e0:b2:49:
                    6c:5d:76:4a:8a:a7:4b:45:c5:34:12:78:96:f5:2b:
                    c4:9b:4b:9e:c5:20:53:57:85:8e:18:01:c7:cd:cf:
                    2c:b7:4b:8a:6e:f9:ea:7c:8e:9f:c0:88:40:4f:9c:
                    af:ac:85:3d:da:68:22:d4:55:8b:a5:c2:af:b5:76:
                    2a:15:ad:a9:9b:b2:17:69:7f:5a:37:f5:72:7e:81:
                    59:66:aa:e1:35:6a:cf:85:5f:6d:82:c5:b9:22:be:
                    e1:7b:7b:9b:d7:98:75:77:84:5b:14:a1:78:88:ab:
                    f7:3e:5d:6a:92:a3:f0:3f:91:3a:1f:9d:62:40:18:
                    f5:7e:39:0a:a7:f5:b3:e1:78:9d:d4:0d:32:13:52:
                    ec:41
                Exponent: 65537 (0x10001)
        X509v3 extensions:
            X509v3 Basic Constraints: 
                CA:TRUE
    Signature Algorithm: sha256WithRSAEncryption
         95:2e:38:dc:69:2a:06:d8:59:14:a7:df:27:91:46:60:5c:5b:
         0d:8e:21:4a:53:30:51:4a:fc:2e:00:1e:bf:a8:42:af:c5:88:
         83:93:68:7f:55:49:ea:d0:89:8f:b2:df:1f:ef:c2:22:a3:b3:
         ae:2a:48:e5:bb:98:16:6e:fa:bb:f9:ac:1c:5c:89:a4:ab:2c:
         3e:c9:ff:f6:69:63:74:72:93:e7:0f:e4:b6:a5:51:47:e7:f5:
         a2:22:5d:2d:a6:82:db:69:0d:df:61:85:42:56:11:b2:e2:36:
         cf:64:5e:33:93:2b:50:0c:8b:a4:1f:ad:2d:63:05:e3:02:b7:
         58:f4:58:d6:49:2e:db:cd:f8:e7:c0:89:37:cf:59:67:6d:19:
         08:9d:84:38:54:2f:0b:e8:8b:ca:35:2b:92:16:57:54:f5:ed:
         45:cb:5c:46:b5:01:26:8e:ef:f5:2b:0c:0b:a4:a9:9f:c0:10:
         ba:c2:81:50:6e:42:89:ec:e9:5d:30:f8:41:04:ce:23:0a:57:
         1c:96:28:c5:a5:49:53:5c:c2:2a:8a:5e:00:d5:77:f3:93:8b:
         40:89:fc:5d:3d:68:03:74:a8:d2:1e:02:81:52:2a:e3:30:c1:
         15:d2:33:1c:05:5d:a8:91:be:d3:a0:5e:fe:48:f9:30:2d:5f:
         82:1e:cb:70
-----BEGIN CERTIFICATE-----
MIICzzCCAbegAwIBAgIBBjANBgkqhkiG9w0BAQsFADAXMRUwEwYDVQQDDAxSYXlt
b25kIExlb24wHhcNMjIxMTE2MDEyMzEwWhcNMjMxMjE5MDEyMzEwWjAtMSswKQYD
VQQDDCJJbnRlcm1lZGlhdGUgQ2VydGlmaWNhdGUgQXV0aG9yaXR5MIIBIjANBgkq
hkiG9w0BAQEFAAOCAQ8AMIIBCgKCAQEAnPEpKdDNTLJo5hmNqQ26F1NsX6nTEu7h
1vH3mqn+1FLj2Fy2B+wptICxYf6VvktC4QxcQUhRAEtDo0RaDnkg64XnMp9WQYhb
Jb5tMrkki2J2+q+gLRan/h7kEPbhL3S7AN8pMjzZTCzoYIB4r5YwK4nAfyrgskls
XXZKiqdLRcU0EniW9SvEm0uexSBTV4WOGAHHzc8st0uKbvnqfI6fwIhAT5yvrIU9
2mgi1FWLpcKvtXYqFa2pm7IXaX9aN/VyfoFZZqrhNWrPhV9tgsW5Ir7he3ub15h1
d4RbFKF4iKv3Pl1qkqPwP5E6H51iQBj1fjkKp/Wz4Xid1A0yE1LsQQIDAQABoxAw
DjAMBgNVHRMEBTADAQH/MA0GCSqGSIb3DQEBCwUAA4IBAQCVLjjcaSoG2FkUp98n
kUZgXFsNjiFKUzBRSvwuAB6/qEKvxYiDk2h/VUnq0ImPst8f78Iio7OuKkjlu5gW
bvq7+awcXImkqyw+yf/2aWN0cpPnD+S2pVFH5/WiIl0tpoLbaQ3fYYVCVhGy4jbP
ZF4zkytQDIukH60tYwXjArdY9FjWSS7bzfjnwIk3z1lnbRkInYQ4VC8L6IvKNSuS
FldU9e1Fy1xGtQEmju/1KwwLpKmfwBC6woFQbkKJ7OldMPhBBM4jClcclijFpUlT
XMIqil4A1Xfzk4tAifxdPWgDdKjSHgKBUirjMMEV0jMcBV2okb7ToF7+SPkwLV+C
Hstw
-----END CERTIFICATE-----
