Certificate:
    Data:
        Version: 3 (0x2)
        Serial Number: 7 (0x7)
    Signature Algorithm: sha256WithRSAEncryption
        Issuer: CN=Raymond Leon
        Validity
            Not Before: Nov 16 01:24:00 2022 GMT
            Not After : Dec 19 01:24:00 2023 GMT
        Subject: CN=Intermediate Certificate Authority
        Subject Public Key Info:
            Public Key Algorithm: rsaEncryption
                RSA Public-Key: (2048 bit)
                Modulus:
                    00:9c:f1:29:29:d0:cd:4c:b2:68:e6:19:8d:a9:0d:
                    ba:17:53:6c:5f:a9:d3:12:ee:e1:d6:f1:f7:9a:a9:
                    fe:d4:52:e3:d8:5c:b6:07:ec:29:b4:80:b1:61:fe:
                    95:be:4b:42:e1:0c:5c:41:48:51:00:4b:43:a3:44:
                    5a:0e:79:20:eb:85:e7:32:9f:56:41:88:5b:25:be:
                    6d:32:b9:24:8b:62:76:fa:af:a0:2d:16:a7:fe:1e:
                    e4:10:f6:e1:2f:74:bb:00:df:29:32:3c:d9:4c:2c:
                    e8:60:80:78:af:96:30:2b:89:c0:7f:2a:e0:b2:49:
                    6c:5d:76:4a:8a:a7:4b:45:c5:34:12:78:96:f5:2b:
                    c4:9b:4b:9e:c5:20:53:57:85:8e:18:01:c7:cd:cf:
                    2c:b7:4b:8a:6e:f9:ea:7c:8e:9f:c0:88:40:4f:9c:
                    af:ac:85:3d:da:68:22:d4:55:8b:a5:c2:af:b5:76:
                    2a:15:ad:a9:9b:b2:17:69:7f:5a:37:f5:72:7e:81:
                    59:66:aa:e1:35:6a:cf:85:5f:6d:82:c5:b9:22:be:
                    e1:7b:7b:9b:d7:98:75:77:84:5b:14:a1:78:88:ab:
                    f7:3e:5d:6a:92:a3:f0:3f:91:3a:1f:9d:62:40:18:
                    f5:7e:39:0a:a7:f5:b3:e1:78:9d:d4:0d:32:13:52:
                    ec:41
                Exponent: 65537 (0x10001)
        X509v3 extensions:
            X509v3 Basic Constraints: 
                CA:TRUE
    Signature Algorithm: sha256WithRSAEncryption
         3e:9c:c5:e0:55:fb:89:8f:0a:bf:a1:1a:5f:2f:39:2d:38:67:
         b5:1e:01:13:37:0e:8e:c6:b6:85:1b:68:73:55:7e:29:8a:86:
         f9:a2:61:c6:bd:6f:a2:6b:92:40:4b:d5:6e:9d:76:21:3c:b9:
         8f:23:7e:67:08:79:27:e4:59:4e:c1:bf:f2:1c:f4:cf:29:aa:
         89:b5:20:de:ff:f6:c4:5c:14:3d:c1:b1:c8:86:46:b8:8c:e8:
         3e:ab:ee:dc:b2:36:26:4b:9c:cd:9a:41:bc:0c:2e:e8:ee:ce:
         72:37:e4:1d:f3:02:b8:c2:00:f2:10:3e:8e:9a:26:c1:5b:14:
         a5:fd:2b:3a:b6:8d:94:60:97:c8:aa:e6:62:4e:10:23:0b:7f:
         8e:28:ed:12:2c:4d:5b:02:1f:c4:e3:06:7c:4e:cb:38:87:2b:
         bf:b8:62:7d:73:b7:75:b2:13:00:97:38:05:e4:7a:57:46:4d:
         43:5c:63:f5:5b:64:6c:7a:21:39:2c:2b:b2:41:9f:6c:42:d6:
         45:c0:fc:16:7f:81:fc:d1:dd:7f:96:dc:25:5f:2f:fa:69:b8:
         82:5a:dd:fe:b6:5c:d5:7d:b4:79:b7:9f:67:0f:3c:4d:93:ba:
         a4:ab:ea:63:fd:80:ec:37:a5:b4:53:fa:72:f5:f9:b9:3a:f0:
         03:d3:80:4b
-----BEGIN CERTIFICATE-----
MIICzzCCAbegAwIBAgIBBzANBgkqhkiG9w0BAQsFADAXMRUwEwYDVQQDDAxSYXlt
b25kIExlb24wHhcNMjIxMTE2MDEyNDAwWhcNMjMxMjE5MDEyNDAwWjAtMSswKQYD
VQQDDCJJbnRlcm1lZGlhdGUgQ2VydGlmaWNhdGUgQXV0aG9yaXR5MIIBIjANBgkq
hkiG9w0BAQEFAAOCAQ8AMIIBCgKCAQEAnPEpKdDNTLJo5hmNqQ26F1NsX6nTEu7h
1vH3mqn+1FLj2Fy2B+wptICxYf6VvktC4QxcQUhRAEtDo0RaDnkg64XnMp9WQYhb
Jb5tMrkki2J2+q+gLRan/h7kEPbhL3S7AN8pMjzZTCzoYIB4r5YwK4nAfyrgskls
XXZKiqdLRcU0EniW9SvEm0uexSBTV4WOGAHHzc8st0uKbvnqfI6fwIhAT5yvrIU9
2mgi1FWLpcKvtXYqFa2pm7IXaX9aN/VyfoFZZqrhNWrPhV9tgsW5Ir7he3ub15h1
d4RbFKF4iKv3Pl1qkqPwP5E6H51iQBj1fjkKp/Wz4Xid1A0yE1LsQQIDAQABoxAw
DjAMBgNVHRMEBTADAQH/MA0GCSqGSIb3DQEBCwUAA4IBAQA+nMXgVfuJjwq/oRpf
LzktOGe1HgETNw6OxraFG2hzVX4piob5omHGvW+ia5JAS9VunXYhPLmPI35nCHkn
5FlOwb/yHPTPKaqJtSDe//bEXBQ9wbHIhka4jOg+q+7csjYmS5zNmkG8DC7o7s5y
N+Qd8wK4wgDyED6OmibBWxSl/Ss6to2UYJfIquZiThAjC3+OKO0SLE1bAh/E4wZ8
Tss4hyu/uGJ9c7d1shMAlzgF5HpXRk1DXGP1W2RseiE5LCuyQZ9sQtZFwPwWf4H8
0d1/ltwlXy/6abiCWt3+tlzVfbR5t59nDzxNk7qkq+pj/YDsN6W0U/py9fm5OvAD
04BL
-----END CERTIFICATE-----
